target datalayout = "e-m:e-p270:32:32-p271:32:32-p272:64:64-i64:64-i128:128-f80:128-n8:16:32:64-S128"
target triple = "x86_64-pc-linux-gnu"

%struct.test_fixture = type { ptr, ptr, ptr, ptr, ptr, ptr, i32, ptr, ptr, ptr, i32, i32, i32 }
%struct.ossl_cmp_msg_st = type { ptr, ptr, ptr, ptr, ptr, ptr }
%struct.ossl_cmp_pkiheader_st = type { ptr, ptr, ptr, ptr, ptr, ptr, ptr, ptr, ptr, ptr, ptr, ptr }
%struct.ossl_cmp_ctx_st = type { ptr, ptr, ptr, i32, ptr, ptr, ptr, ptr, ptr, i32, ptr, ptr, i32, i32, i32, i32, i64, ptr, ptr, i32, i32, ptr, ptr, ptr, ptr, ptr, i32, i32, i32, ptr, ptr, ptr, ptr, ptr, i64, ptr, i32, i32, ptr, ptr, ptr, ptr, ptr, ptr, ptr, ptr, i32, i32, ptr, ptr, i32, ptr, ptr, i32, ptr, ptr, i32, i32, ptr, ptr, i32, i32, ptr, ptr, i32, ptr, i32, ptr, i32, ptr, ptr, ptr, ptr, ptr, ptr }
%struct.ossl_cmp_protectedpart_st = type { ptr, ptr }

@libctx = internal global ptr null, align 8
@.str.14 = private unnamed_addr constant [35 x i8] c"../openssl/test/cmp_protect_test.c\00", align 1
@.str.66 = private unnamed_addr constant [11 x i8] c"protection\00", align 1
@.str.69 = private unnamed_addr constant [86 x i8] c"verify_signature(fixture->msg, protection, fixture->pubkey, fixture->cmp_ctx->digest)\00", align 1

; Function Attrs: nounwind uwtable
define internal i32 @verify_signature(ptr noundef %0, ptr noundef %1, ptr noundef %2, ptr noundef %3) #0 {
  %5 = alloca ptr, align 8
  %6 = alloca ptr, align 8
  %7 = alloca ptr, align 8
  %8 = alloca ptr, align 8
  %9 = alloca %struct.ossl_cmp_protectedpart_st, align 8
  store ptr %0, ptr %5, align 8, !tbaa !9
  store ptr %1, ptr %6, align 8, !tbaa !53
  store ptr %2, ptr %7, align 8, !tbaa !4
  store ptr %3, ptr %8, align 8, !tbaa !65
  call void @llvm.lifetime.start.p0(i64 16, ptr %9) #5
  %10 = load ptr, ptr %5, align 8, !tbaa !9
  %11 = call ptr @OSSL_CMP_MSG_get0_header(ptr noundef %10)
  %12 = getelementptr inbounds nuw %struct.ossl_cmp_protectedpart_st, ptr %9, i32 0, i32 0
  store ptr %11, ptr %12, align 8, !tbaa !66
  %13 = load ptr, ptr %5, align 8, !tbaa !9
  %14 = getelementptr inbounds nuw %struct.ossl_cmp_msg_st, ptr %13, i32 0, i32 1
  %15 = load ptr, ptr %14, align 8, !tbaa !68
  %16 = getelementptr inbounds nuw %struct.ossl_cmp_protectedpart_st, ptr %9, i32 0, i32 1
  store ptr %15, ptr %16, align 8, !tbaa !69
  %17 = call ptr @OSSL_CMP_PROTECTEDPART_it()
  %18 = load ptr, ptr %5, align 8, !tbaa !9
  %19 = getelementptr inbounds nuw %struct.ossl_cmp_msg_st, ptr %18, i32 0, i32 0
  %20 = load ptr, ptr %19, align 8, !tbaa !28
  %21 = getelementptr inbounds nuw %struct.ossl_cmp_pkiheader_st, ptr %20, i32 0, i32 4
  %22 = load ptr, ptr %21, align 8, !tbaa !33
  %23 = load ptr, ptr %6, align 8, !tbaa !53
  %24 = load ptr, ptr %7, align 8, !tbaa !4
  %25 = load ptr, ptr @libctx, align 8, !tbaa !15
  %26 = call i32 @ASN1_item_verify_ex(ptr noundef %17, ptr noundef %22, ptr noundef %23, ptr noundef %9, ptr noundef null, ptr noundef %24, ptr noundef %25, ptr noundef null)
  %27 = icmp sgt i32 %26, 0
  %28 = zext i1 %27 to i32
  call void @llvm.lifetime.end.p0(i64 16, ptr %9) #5
  ret i32 %28
}

; Function Attrs: nounwind uwtable
define internal i32 @execute_calc_protection_signature_test(ptr noundef %0) #0 {
  %2 = alloca ptr, align 8
  %3 = alloca ptr, align 8
  %4 = alloca i32, align 4
  store ptr %0, ptr %2, align 8, !tbaa !19
  call void @llvm.lifetime.start.p0(i64 8, ptr %3) #5
  %5 = load ptr, ptr %2, align 8, !tbaa !19
  %6 = getelementptr inbounds nuw %struct.test_fixture, ptr %5, i32 0, i32 1
  %7 = load ptr, ptr %6, align 8, !tbaa !40
  %8 = load ptr, ptr %2, align 8, !tbaa !19
  %9 = getelementptr inbounds nuw %struct.test_fixture, ptr %8, i32 0, i32 2
  %10 = load ptr, ptr %9, align 8, !tbaa !23
  %11 = call ptr @ossl_cmp_calc_protection(ptr noundef %7, ptr noundef %10)
  store ptr %11, ptr %3, align 8, !tbaa !53
  call void @llvm.lifetime.start.p0(i64 4, ptr %4) #5
  %12 = load ptr, ptr %3, align 8, !tbaa !53
  %13 = call i32 @test_ptr(ptr noundef @.str.14, i32 noundef 125, ptr noundef @.str.66, ptr noundef %12)
  %14 = icmp ne i32 %13, 0
  br i1 %14, label %15, label %33

15:                                               ; preds = %1
  %16 = load ptr, ptr %2, align 8, !tbaa !19
  %17 = getelementptr inbounds nuw %struct.test_fixture, ptr %16, i32 0, i32 2
  %18 = load ptr, ptr %17, align 8, !tbaa !23
  %19 = load ptr, ptr %3, align 8, !tbaa !53
  %20 = load ptr, ptr %2, align 8, !tbaa !19
  %21 = getelementptr inbounds nuw %struct.test_fixture, ptr %20, i32 0, i32 4
  %22 = load ptr, ptr %21, align 8, !tbaa !39
  %23 = load ptr, ptr %2, align 8, !tbaa !19
  %24 = getelementptr inbounds nuw %struct.test_fixture, ptr %23, i32 0, i32 1
  %25 = load ptr, ptr %24, align 8, !tbaa !40
  %26 = getelementptr inbounds nuw %struct.ossl_cmp_ctx_st, ptr %25, i32 0, i32 39
  %27 = load ptr, ptr %26, align 8, !tbaa !55
  %28 = call i32 @verify_signature(ptr noundef %18, ptr noundef %19, ptr noundef %22, ptr noundef %27)
  %29 = icmp ne i32 %28, 0
  %30 = zext i1 %29 to i32
  %31 = call i32 @test_true(ptr noundef @.str.14, i32 noundef 128, ptr noundef @.str.69, i32 noundef %30)
  %32 = icmp ne i32 %31, 0
  br label %33

33:                                               ; preds = %15, %1
  %34 = phi i1 [ false, %1 ], [ %32, %15 ]
  %35 = zext i1 %34 to i32
  store i32 %35, ptr %4, align 4, !tbaa !21
  %36 = load ptr, ptr %3, align 8, !tbaa !53
  call void @ASN1_BIT_STRING_free(ptr noundef %36)
  %37 = load i32, ptr %4, align 4, !tbaa !21
  call void @llvm.lifetime.end.p0(i64 4, ptr %4) #5
  call void @llvm.lifetime.end.p0(i64 8, ptr %3) #5
  ret i32 %37
}