; Function Attrs: nounwind uwtable
define internal fastcc range(i32 0, 2) i32 @execute_calc_protection_signature_test(ptr noundef nonnull readonly captures(none) %0) unnamed_addr #0 {
  %2 = alloca %struct.ossl_cmp_protectedpart_st, align 8
  %3 = getelementptr inbounds nuw i8, ptr %0, i64 8
  %4 = load ptr, ptr %3, align 8, !tbaa !36
  %5 = getelementptr inbounds nuw i8, ptr %0, i64 16
  %6 = load ptr, ptr %5, align 8, !tbaa !19
  %7 = tail call ptr @ossl_cmp_calc_protection(ptr noundef %4, ptr noundef %6) #5
  %8 = tail call i32 @test_ptr(ptr noundef nonnull @.str.14, i32 noundef 125, ptr noundef nonnull @.str.66, ptr noundef %7) #5
  %.not = icmp eq i32 %8, 0
  br i1 %.not, label %28, label %9

9:                                                ; preds = %1
  %10 = load ptr, ptr %5, align 8, !tbaa !19
  %11 = getelementptr inbounds nuw i8, ptr %0, i64 32
  %12 = load ptr, ptr %11, align 8, !tbaa !41
  call void @llvm.lifetime.start.p0(i64 16, ptr nonnull %2) #5
  %13 = tail call ptr @OSSL_CMP_MSG_get0_header(ptr noundef %10) #5
  store ptr %13, ptr %2, align 8, !tbaa !48
  %14 = getelementptr inbounds nuw i8, ptr %10, i64 8
  %15 = load ptr, ptr %14, align 8, !tbaa !50
  %16 = getelementptr inbounds nuw i8, ptr %2, i64 8
  store ptr %15, ptr %16, align 8, !tbaa !51
  %17 = tail call ptr @OSSL_CMP_PROTECTEDPART_it() #5
  %18 = load ptr, ptr %10, align 8, !tbaa !25
  %19 = getelementptr inbounds nuw i8, ptr %18, i64 32
  %20 = load ptr, ptr %19, align 8, !tbaa !30
  %21 = load ptr, ptr @libctx, align 8, !tbaa !15
  %22 = call i32 @ASN1_item_verify_ex(ptr noundef %17, ptr noundef %20, ptr noundef %7, ptr noundef nonnull %2, ptr noundef null, ptr noundef %12, ptr noundef %21, ptr noundef null) #5
  %23 = icmp sgt i32 %22, 0
  %24 = zext i1 %23 to i32
  call void @llvm.lifetime.end.p0(i64 16, ptr nonnull %2) #5
  %25 = call i32 @test_true(ptr noundef nonnull @.str.14, i32 noundef 128, ptr noundef nonnull @.str.69, i32 noundef %24) #5
  %26 = icmp ne i32 %25, 0
  %27 = zext i1 %26 to i32
  br label %28

28:                                               ; preds = %9, %1
  %29 = phi i32 [ 0, %1 ], [ %27, %9 ]
  call void @ASN1_BIT_STRING_free(ptr noundef %7) #5
  ret i32 %29
}